; Function Attrs: mustprogress nounwind uwtable
define void @_ZN5arrow15ProxyMemoryPoolD2Ev(ptr noundef nonnull align 8 captures(none) dereferenceable(16) initializes((0, 8)) %0) unnamed_addr #7 align 2 personality ptr @__gxx_personality_v0 {
  store ptr getelementptr inbounds nuw inrange(-16, 96) (i8, ptr @_ZTVN5arrow15ProxyMemoryPoolE, i64 16), ptr %0, align 8, !tbaa !10
  %2 = getelementptr inbounds nuw i8, ptr %0, i64 8
  %3 = load ptr, ptr %2, align 8, !tbaa !80
  %.not.i = icmp eq ptr %3, null
  br i1 %.not.i, label %_ZNSt10unique_ptrIN5arrow15ProxyMemoryPool19ProxyMemoryPoolImplESt14default_deleteIS2_EED2Ev.exit, label %_ZNKSt14default_deleteIN5arrow15ProxyMemoryPool19ProxyMemoryPoolImplEEclEPS2_.exit.i

_ZNKSt14default_deleteIN5arrow15ProxyMemoryPool19ProxyMemoryPoolImplEEclEPS2_.exit.i: ; preds = %1
  tail call void @_ZdlPvmSt11align_val_t(ptr noundef nonnull %3, i64 noundef 128, i64 noundef 64) #34
  br label %_ZNSt10unique_ptrIN5arrow15ProxyMemoryPool19ProxyMemoryPoolImplESt14default_deleteIS2_EED2Ev.exit

_ZNSt10unique_ptrIN5arrow15ProxyMemoryPool19ProxyMemoryPoolImplESt14default_deleteIS2_EED2Ev.exit: ; preds = %1, %_ZNKSt14default_deleteIN5arrow15ProxyMemoryPool19ProxyMemoryPoolImplEEclEPS2_.exit.i
  store ptr null, ptr %2, align 8, !tbaa !80
  ret void
}